; Function Attrs: mustprogress uwtable
define void @_ZN32pxrInternal_v0_24__pxrReserved__31UsdImagingDataSourceXformMatrixC2ERKNS_16UsdGeomXformable10XformQueryERKNS_32UsdImagingDataSourceStageGlobalsE(ptr noundef nonnull align 8 dereferenceable(48) initializes((0, 8)) %0, ptr noundef nonnull align 8 dereferenceable(25) %1, ptr noundef nonnull align 8 dereferenceable(8) %2) unnamed_addr #0 align 2 personality ptr @__gxx_personality_v0 {
  store ptr getelementptr inbounds nuw inrange(-16, 40) (i8, ptr @_ZTVN32pxrInternal_v0_24__pxrReserved__31UsdImagingDataSourceXformMatrixE, i64 16), ptr %0, align 8
  %4 = getelementptr inbounds nuw i8, ptr %0, i64 8
  invoke void @_ZNSt6vectorIN32pxrInternal_v0_24__pxrReserved__14UsdGeomXformOpESaIS1_EEC2ERKS3_(ptr noundef nonnull align 8 dereferenceable(25) %4, ptr noundef nonnull align 8 dereferenceable(25) %1)
          to label %5 unwind label %11

5:                                                ; preds = %3
  %6 = getelementptr inbounds nuw i8, ptr %0, i64 32
  %7 = getelementptr inbounds nuw i8, ptr %1, i64 24
  %8 = load i8, ptr %7, align 8
  %9 = and i8 %8, 1
  store i8 %9, ptr %6, align 8
  %10 = getelementptr inbounds nuw i8, ptr %0, i64 40
  store ptr %2, ptr %10, align 8
  ret void

11:                                               ; preds = %3
  %12 = landingpad { ptr, i32 }
          cleanup
  tail call void @_ZN32pxrInternal_v0_24__pxrReserved__16HdDataSourceBaseD2Ev(ptr noundef nonnull align 8 dereferenceable(8) %0) #23
  resume { ptr, i32 } %12
}